ARM GAS  C:\Users\vuvan\AppData\Local\Temp\ccgZoVN3.s 			page 1


   1              		.cpu cortex-m4
   2              		.eabi_attribute 27, 1
   3              		.eabi_attribute 28, 1
   4              		.eabi_attribute 20, 1
   5              		.eabi_attribute 21, 1
   6              		.eabi_attribute 23, 3
   7              		.eabi_attribute 24, 1
   8              		.eabi_attribute 25, 1
   9              		.eabi_attribute 26, 1
  10              		.eabi_attribute 30, 1
  11              		.eabi_attribute 34, 1
  12              		.eabi_attribute 18, 4
  13              		.file	"stm32l4xx_hal_msp.c"
  14              		.text
  15              	.Ltext0:
  16              		.cfi_sections	.debug_frame
  17              		.section	.text.HAL_MspInit,"ax",%progbits
  18              		.align	1
  19              		.global	HAL_MspInit
  20              		.arch armv7e-m
  21              		.syntax unified
  22              		.thumb
  23              		.thumb_func
  24              		.fpu fpv4-sp-d16
  26              	HAL_MspInit:
  27              	.LFB132:
  28              		.file 1 "Core/Src/stm32l4xx_hal_msp.c"
   1:Core/Src/stm32l4xx_hal_msp.c **** /* USER CODE BEGIN Header */
   2:Core/Src/stm32l4xx_hal_msp.c **** /**
   3:Core/Src/stm32l4xx_hal_msp.c ****   ******************************************************************************
   4:Core/Src/stm32l4xx_hal_msp.c ****   * @file         stm32l4xx_hal_msp.c
   5:Core/Src/stm32l4xx_hal_msp.c ****   * @brief        This file provides code for the MSP Initialization
   6:Core/Src/stm32l4xx_hal_msp.c ****   *               and de-Initialization codes.
   7:Core/Src/stm32l4xx_hal_msp.c ****   ******************************************************************************
   8:Core/Src/stm32l4xx_hal_msp.c ****   * @attention
   9:Core/Src/stm32l4xx_hal_msp.c ****   *
  10:Core/Src/stm32l4xx_hal_msp.c ****   * <h2><center>&copy; Copyright (c) 2022 STMicroelectronics.
  11:Core/Src/stm32l4xx_hal_msp.c ****   * All rights reserved.</center></h2>
  12:Core/Src/stm32l4xx_hal_msp.c ****   *
  13:Core/Src/stm32l4xx_hal_msp.c ****   * This software component is licensed by ST under BSD 3-Clause license,
  14:Core/Src/stm32l4xx_hal_msp.c ****   * the "License"; You may not use this file except in compliance with the
  15:Core/Src/stm32l4xx_hal_msp.c ****   * License. You may obtain a copy of the License at:
  16:Core/Src/stm32l4xx_hal_msp.c ****   *                        opensource.org/licenses/BSD-3-Clause
  17:Core/Src/stm32l4xx_hal_msp.c ****   *
  18:Core/Src/stm32l4xx_hal_msp.c ****   ******************************************************************************
  19:Core/Src/stm32l4xx_hal_msp.c ****   */
  20:Core/Src/stm32l4xx_hal_msp.c **** /* USER CODE END Header */
  21:Core/Src/stm32l4xx_hal_msp.c **** 
  22:Core/Src/stm32l4xx_hal_msp.c **** /* Includes ------------------------------------------------------------------*/
  23:Core/Src/stm32l4xx_hal_msp.c **** #include "main.h"
  24:Core/Src/stm32l4xx_hal_msp.c **** /* USER CODE BEGIN Includes */
  25:Core/Src/stm32l4xx_hal_msp.c **** 
  26:Core/Src/stm32l4xx_hal_msp.c **** /* USER CODE END Includes */
  27:Core/Src/stm32l4xx_hal_msp.c **** 
  28:Core/Src/stm32l4xx_hal_msp.c **** /* Private typedef -----------------------------------------------------------*/
  29:Core/Src/stm32l4xx_hal_msp.c **** /* USER CODE BEGIN TD */
  30:Core/Src/stm32l4xx_hal_msp.c **** 
ARM GAS  C:\Users\vuvan\AppData\Local\Temp\ccgZoVN3.s 			page 2


  31:Core/Src/stm32l4xx_hal_msp.c **** /* USER CODE END TD */
  32:Core/Src/stm32l4xx_hal_msp.c **** 
  33:Core/Src/stm32l4xx_hal_msp.c **** /* Private define ------------------------------------------------------------*/
  34:Core/Src/stm32l4xx_hal_msp.c **** /* USER CODE BEGIN Define */
  35:Core/Src/stm32l4xx_hal_msp.c **** 
  36:Core/Src/stm32l4xx_hal_msp.c **** /* USER CODE END Define */
  37:Core/Src/stm32l4xx_hal_msp.c **** 
  38:Core/Src/stm32l4xx_hal_msp.c **** /* Private macro -------------------------------------------------------------*/
  39:Core/Src/stm32l4xx_hal_msp.c **** /* USER CODE BEGIN Macro */
  40:Core/Src/stm32l4xx_hal_msp.c **** 
  41:Core/Src/stm32l4xx_hal_msp.c **** /* USER CODE END Macro */
  42:Core/Src/stm32l4xx_hal_msp.c **** 
  43:Core/Src/stm32l4xx_hal_msp.c **** /* Private variables ---------------------------------------------------------*/
  44:Core/Src/stm32l4xx_hal_msp.c **** /* USER CODE BEGIN PV */
  45:Core/Src/stm32l4xx_hal_msp.c **** 
  46:Core/Src/stm32l4xx_hal_msp.c **** /* USER CODE END PV */
  47:Core/Src/stm32l4xx_hal_msp.c **** 
  48:Core/Src/stm32l4xx_hal_msp.c **** /* Private function prototypes -----------------------------------------------*/
  49:Core/Src/stm32l4xx_hal_msp.c **** /* USER CODE BEGIN PFP */
  50:Core/Src/stm32l4xx_hal_msp.c **** 
  51:Core/Src/stm32l4xx_hal_msp.c **** /* USER CODE END PFP */
  52:Core/Src/stm32l4xx_hal_msp.c **** 
  53:Core/Src/stm32l4xx_hal_msp.c **** /* External functions --------------------------------------------------------*/
  54:Core/Src/stm32l4xx_hal_msp.c **** /* USER CODE BEGIN ExternalFunctions */
  55:Core/Src/stm32l4xx_hal_msp.c **** 
  56:Core/Src/stm32l4xx_hal_msp.c **** /* USER CODE END ExternalFunctions */
  57:Core/Src/stm32l4xx_hal_msp.c **** 
  58:Core/Src/stm32l4xx_hal_msp.c **** /* USER CODE BEGIN 0 */
  59:Core/Src/stm32l4xx_hal_msp.c **** 
  60:Core/Src/stm32l4xx_hal_msp.c **** /* USER CODE END 0 */
  61:Core/Src/stm32l4xx_hal_msp.c **** /**
  62:Core/Src/stm32l4xx_hal_msp.c ****   * Initializes the Global MSP.
  63:Core/Src/stm32l4xx_hal_msp.c ****   */
  64:Core/Src/stm32l4xx_hal_msp.c **** void HAL_MspInit(void)
  65:Core/Src/stm32l4xx_hal_msp.c **** {
  29              		.loc 1 65 1 view -0
  30              		.cfi_startproc
  31              		@ args = 0, pretend = 0, frame = 8
  32              		@ frame_needed = 0, uses_anonymous_args = 0
  33              		@ link register save eliminated.
  34 0000 82B0     		sub	sp, sp, #8
  35              	.LCFI0:
  36              		.cfi_def_cfa_offset 8
  66:Core/Src/stm32l4xx_hal_msp.c ****   /* USER CODE BEGIN MspInit 0 */
  67:Core/Src/stm32l4xx_hal_msp.c **** 
  68:Core/Src/stm32l4xx_hal_msp.c ****   /* USER CODE END MspInit 0 */
  69:Core/Src/stm32l4xx_hal_msp.c **** 
  70:Core/Src/stm32l4xx_hal_msp.c ****   __HAL_RCC_SYSCFG_CLK_ENABLE();
  37              		.loc 1 70 3 view .LVU1
  38              	.LBB2:
  39              		.loc 1 70 3 view .LVU2
  40              		.loc 1 70 3 view .LVU3
  41 0002 0A4B     		ldr	r3, .L3
  42 0004 1A6E     		ldr	r2, [r3, #96]
  43 0006 42F00102 		orr	r2, r2, #1
  44 000a 1A66     		str	r2, [r3, #96]
  45              		.loc 1 70 3 view .LVU4
ARM GAS  C:\Users\vuvan\AppData\Local\Temp\ccgZoVN3.s 			page 3


  46 000c 1A6E     		ldr	r2, [r3, #96]
  47 000e 02F00102 		and	r2, r2, #1
  48 0012 0092     		str	r2, [sp]
  49              		.loc 1 70 3 view .LVU5
  50 0014 009A     		ldr	r2, [sp]
  51              	.LBE2:
  52              		.loc 1 70 3 view .LVU6
  71:Core/Src/stm32l4xx_hal_msp.c ****   __HAL_RCC_PWR_CLK_ENABLE();
  53              		.loc 1 71 3 view .LVU7
  54              	.LBB3:
  55              		.loc 1 71 3 view .LVU8
  56              		.loc 1 71 3 view .LVU9
  57 0016 9A6D     		ldr	r2, [r3, #88]
  58 0018 42F08052 		orr	r2, r2, #268435456
  59 001c 9A65     		str	r2, [r3, #88]
  60              		.loc 1 71 3 view .LVU10
  61 001e 9B6D     		ldr	r3, [r3, #88]
  62 0020 03F08053 		and	r3, r3, #268435456
  63 0024 0193     		str	r3, [sp, #4]
  64              		.loc 1 71 3 view .LVU11
  65 0026 019B     		ldr	r3, [sp, #4]
  66              	.LBE3:
  67              		.loc 1 71 3 view .LVU12
  72:Core/Src/stm32l4xx_hal_msp.c **** 
  73:Core/Src/stm32l4xx_hal_msp.c ****   /* System interrupt init*/
  74:Core/Src/stm32l4xx_hal_msp.c **** 
  75:Core/Src/stm32l4xx_hal_msp.c ****   /* USER CODE BEGIN MspInit 1 */
  76:Core/Src/stm32l4xx_hal_msp.c **** 
  77:Core/Src/stm32l4xx_hal_msp.c ****   /* USER CODE END MspInit 1 */
  78:Core/Src/stm32l4xx_hal_msp.c **** }
  68              		.loc 1 78 1 is_stmt 0 view .LVU13
  69 0028 02B0     		add	sp, sp, #8
  70              	.LCFI1:
  71              		.cfi_def_cfa_offset 0
  72              		@ sp needed
  73 002a 7047     		bx	lr
  74              	.L4:
  75              		.align	2
  76              	.L3:
  77 002c 00100240 		.word	1073876992
  78              		.cfi_endproc
  79              	.LFE132:
  81              		.section	.text.HAL_UART_MspInit,"ax",%progbits
  82              		.align	1
  83              		.global	HAL_UART_MspInit
  84              		.syntax unified
  85              		.thumb
  86              		.thumb_func
  87              		.fpu fpv4-sp-d16
  89              	HAL_UART_MspInit:
  90              	.LVL0:
  91              	.LFB133:
  79:Core/Src/stm32l4xx_hal_msp.c **** 
  80:Core/Src/stm32l4xx_hal_msp.c **** /**
  81:Core/Src/stm32l4xx_hal_msp.c **** * @brief UART MSP Initialization
  82:Core/Src/stm32l4xx_hal_msp.c **** * This function configures the hardware resources used in this example
  83:Core/Src/stm32l4xx_hal_msp.c **** * @param huart: UART handle pointer
ARM GAS  C:\Users\vuvan\AppData\Local\Temp\ccgZoVN3.s 			page 4


  84:Core/Src/stm32l4xx_hal_msp.c **** * @retval None
  85:Core/Src/stm32l4xx_hal_msp.c **** */
  86:Core/Src/stm32l4xx_hal_msp.c **** void HAL_UART_MspInit(UART_HandleTypeDef* huart)
  87:Core/Src/stm32l4xx_hal_msp.c **** {
  92              		.loc 1 87 1 is_stmt 1 view -0
  93              		.cfi_startproc
  94              		@ args = 0, pretend = 0, frame = 168
  95              		@ frame_needed = 0, uses_anonymous_args = 0
  96              		.loc 1 87 1 is_stmt 0 view .LVU15
  97 0000 10B5     		push	{r4, lr}
  98              	.LCFI2:
  99              		.cfi_def_cfa_offset 8
 100              		.cfi_offset 4, -8
 101              		.cfi_offset 14, -4
 102 0002 AAB0     		sub	sp, sp, #168
 103              	.LCFI3:
 104              		.cfi_def_cfa_offset 176
 105 0004 0446     		mov	r4, r0
  88:Core/Src/stm32l4xx_hal_msp.c ****   GPIO_InitTypeDef GPIO_InitStruct = {0};
 106              		.loc 1 88 3 is_stmt 1 view .LVU16
 107              		.loc 1 88 20 is_stmt 0 view .LVU17
 108 0006 0021     		movs	r1, #0
 109 0008 2591     		str	r1, [sp, #148]
 110 000a 2691     		str	r1, [sp, #152]
 111 000c 2791     		str	r1, [sp, #156]
 112 000e 2891     		str	r1, [sp, #160]
 113 0010 2991     		str	r1, [sp, #164]
  89:Core/Src/stm32l4xx_hal_msp.c ****   RCC_PeriphCLKInitTypeDef PeriphClkInit = {0};
 114              		.loc 1 89 3 is_stmt 1 view .LVU18
 115              		.loc 1 89 28 is_stmt 0 view .LVU19
 116 0012 8822     		movs	r2, #136
 117 0014 03A8     		add	r0, sp, #12
 118              	.LVL1:
 119              		.loc 1 89 28 view .LVU20
 120 0016 FFF7FEFF 		bl	memset
 121              	.LVL2:
  90:Core/Src/stm32l4xx_hal_msp.c ****   if(huart->Instance==USART2)
 122              		.loc 1 90 3 is_stmt 1 view .LVU21
 123              		.loc 1 90 11 is_stmt 0 view .LVU22
 124 001a 2268     		ldr	r2, [r4]
 125              		.loc 1 90 5 view .LVU23
 126 001c 194B     		ldr	r3, .L11
 127 001e 9A42     		cmp	r2, r3
 128 0020 01D0     		beq	.L9
 129              	.L5:
  91:Core/Src/stm32l4xx_hal_msp.c ****   {
  92:Core/Src/stm32l4xx_hal_msp.c ****   /* USER CODE BEGIN USART2_MspInit 0 */
  93:Core/Src/stm32l4xx_hal_msp.c **** 
  94:Core/Src/stm32l4xx_hal_msp.c ****   /* USER CODE END USART2_MspInit 0 */
  95:Core/Src/stm32l4xx_hal_msp.c ****   /** Initializes the peripherals clock
  96:Core/Src/stm32l4xx_hal_msp.c ****   */
  97:Core/Src/stm32l4xx_hal_msp.c ****     PeriphClkInit.PeriphClockSelection = RCC_PERIPHCLK_USART2;
  98:Core/Src/stm32l4xx_hal_msp.c ****     PeriphClkInit.Usart2ClockSelection = RCC_USART2CLKSOURCE_PCLK1;
  99:Core/Src/stm32l4xx_hal_msp.c ****     if (HAL_RCCEx_PeriphCLKConfig(&PeriphClkInit) != HAL_OK)
 100:Core/Src/stm32l4xx_hal_msp.c ****     {
 101:Core/Src/stm32l4xx_hal_msp.c ****       Error_Handler();
 102:Core/Src/stm32l4xx_hal_msp.c ****     }
ARM GAS  C:\Users\vuvan\AppData\Local\Temp\ccgZoVN3.s 			page 5


 103:Core/Src/stm32l4xx_hal_msp.c **** 
 104:Core/Src/stm32l4xx_hal_msp.c ****     /* Peripheral clock enable */
 105:Core/Src/stm32l4xx_hal_msp.c ****     __HAL_RCC_USART2_CLK_ENABLE();
 106:Core/Src/stm32l4xx_hal_msp.c **** 
 107:Core/Src/stm32l4xx_hal_msp.c ****     __HAL_RCC_GPIOA_CLK_ENABLE();
 108:Core/Src/stm32l4xx_hal_msp.c ****     /**USART2 GPIO Configuration
 109:Core/Src/stm32l4xx_hal_msp.c ****     PA2     ------> USART2_TX
 110:Core/Src/stm32l4xx_hal_msp.c ****     PA3     ------> USART2_RX
 111:Core/Src/stm32l4xx_hal_msp.c ****     */
 112:Core/Src/stm32l4xx_hal_msp.c ****     GPIO_InitStruct.Pin = USART_TX_Pin|USART_RX_Pin;
 113:Core/Src/stm32l4xx_hal_msp.c ****     GPIO_InitStruct.Mode = GPIO_MODE_AF_PP;
 114:Core/Src/stm32l4xx_hal_msp.c ****     GPIO_InitStruct.Pull = GPIO_NOPULL;
 115:Core/Src/stm32l4xx_hal_msp.c ****     GPIO_InitStruct.Speed = GPIO_SPEED_FREQ_VERY_HIGH;
 116:Core/Src/stm32l4xx_hal_msp.c ****     GPIO_InitStruct.Alternate = GPIO_AF7_USART2;
 117:Core/Src/stm32l4xx_hal_msp.c ****     HAL_GPIO_Init(GPIOA, &GPIO_InitStruct);
 118:Core/Src/stm32l4xx_hal_msp.c **** 
 119:Core/Src/stm32l4xx_hal_msp.c ****   /* USER CODE BEGIN USART2_MspInit 1 */
 120:Core/Src/stm32l4xx_hal_msp.c **** 
 121:Core/Src/stm32l4xx_hal_msp.c ****   /* USER CODE END USART2_MspInit 1 */
 122:Core/Src/stm32l4xx_hal_msp.c ****   }
 123:Core/Src/stm32l4xx_hal_msp.c **** 
 124:Core/Src/stm32l4xx_hal_msp.c **** }
 130              		.loc 1 124 1 view .LVU24
 131 0022 2AB0     		add	sp, sp, #168
 132              	.LCFI4:
 133              		.cfi_remember_state
 134              		.cfi_def_cfa_offset 8
 135              		@ sp needed
 136 0024 10BD     		pop	{r4, pc}
 137              	.LVL3:
 138              	.L9:
 139              	.LCFI5:
 140              		.cfi_restore_state
  97:Core/Src/stm32l4xx_hal_msp.c ****     PeriphClkInit.Usart2ClockSelection = RCC_USART2CLKSOURCE_PCLK1;
 141              		.loc 1 97 5 is_stmt 1 view .LVU25
  97:Core/Src/stm32l4xx_hal_msp.c ****     PeriphClkInit.Usart2ClockSelection = RCC_USART2CLKSOURCE_PCLK1;
 142              		.loc 1 97 40 is_stmt 0 view .LVU26
 143 0026 0223     		movs	r3, #2
 144 0028 0393     		str	r3, [sp, #12]
  98:Core/Src/stm32l4xx_hal_msp.c ****     if (HAL_RCCEx_PeriphCLKConfig(&PeriphClkInit) != HAL_OK)
 145              		.loc 1 98 5 is_stmt 1 view .LVU27
  98:Core/Src/stm32l4xx_hal_msp.c ****     if (HAL_RCCEx_PeriphCLKConfig(&PeriphClkInit) != HAL_OK)
 146              		.loc 1 98 40 is_stmt 0 view .LVU28
 147 002a 0023     		movs	r3, #0
 148 002c 1293     		str	r3, [sp, #72]
  99:Core/Src/stm32l4xx_hal_msp.c ****     {
 149              		.loc 1 99 5 is_stmt 1 view .LVU29
  99:Core/Src/stm32l4xx_hal_msp.c ****     {
 150              		.loc 1 99 9 is_stmt 0 view .LVU30
 151 002e 03A8     		add	r0, sp, #12
 152 0030 FFF7FEFF 		bl	HAL_RCCEx_PeriphCLKConfig
 153              	.LVL4:
  99:Core/Src/stm32l4xx_hal_msp.c ****     {
 154              		.loc 1 99 8 view .LVU31
 155 0034 10BB     		cbnz	r0, .L10
 156              	.L7:
 105:Core/Src/stm32l4xx_hal_msp.c **** 
ARM GAS  C:\Users\vuvan\AppData\Local\Temp\ccgZoVN3.s 			page 6


 157              		.loc 1 105 5 is_stmt 1 view .LVU32
 158              	.LBB4:
 105:Core/Src/stm32l4xx_hal_msp.c **** 
 159              		.loc 1 105 5 view .LVU33
 105:Core/Src/stm32l4xx_hal_msp.c **** 
 160              		.loc 1 105 5 view .LVU34
 161 0036 144B     		ldr	r3, .L11+4
 162 0038 9A6D     		ldr	r2, [r3, #88]
 163 003a 42F40032 		orr	r2, r2, #131072
 164 003e 9A65     		str	r2, [r3, #88]
 105:Core/Src/stm32l4xx_hal_msp.c **** 
 165              		.loc 1 105 5 view .LVU35
 166 0040 9A6D     		ldr	r2, [r3, #88]
 167 0042 02F40032 		and	r2, r2, #131072
 168 0046 0192     		str	r2, [sp, #4]
 105:Core/Src/stm32l4xx_hal_msp.c **** 
 169              		.loc 1 105 5 view .LVU36
 170 0048 019A     		ldr	r2, [sp, #4]
 171              	.LBE4:
 105:Core/Src/stm32l4xx_hal_msp.c **** 
 172              		.loc 1 105 5 view .LVU37
 107:Core/Src/stm32l4xx_hal_msp.c ****     /**USART2 GPIO Configuration
 173              		.loc 1 107 5 view .LVU38
 174              	.LBB5:
 107:Core/Src/stm32l4xx_hal_msp.c ****     /**USART2 GPIO Configuration
 175              		.loc 1 107 5 view .LVU39
 107:Core/Src/stm32l4xx_hal_msp.c ****     /**USART2 GPIO Configuration
 176              		.loc 1 107 5 view .LVU40
 177 004a DA6C     		ldr	r2, [r3, #76]
 178 004c 42F00102 		orr	r2, r2, #1
 179 0050 DA64     		str	r2, [r3, #76]
 107:Core/Src/stm32l4xx_hal_msp.c ****     /**USART2 GPIO Configuration
 180              		.loc 1 107 5 view .LVU41
 181 0052 DB6C     		ldr	r3, [r3, #76]
 182 0054 03F00103 		and	r3, r3, #1
 183 0058 0293     		str	r3, [sp, #8]
 107:Core/Src/stm32l4xx_hal_msp.c ****     /**USART2 GPIO Configuration
 184              		.loc 1 107 5 view .LVU42
 185 005a 029B     		ldr	r3, [sp, #8]
 186              	.LBE5:
 107:Core/Src/stm32l4xx_hal_msp.c ****     /**USART2 GPIO Configuration
 187              		.loc 1 107 5 view .LVU43
 112:Core/Src/stm32l4xx_hal_msp.c ****     GPIO_InitStruct.Mode = GPIO_MODE_AF_PP;
 188              		.loc 1 112 5 view .LVU44
 112:Core/Src/stm32l4xx_hal_msp.c ****     GPIO_InitStruct.Mode = GPIO_MODE_AF_PP;
 189              		.loc 1 112 25 is_stmt 0 view .LVU45
 190 005c 0C23     		movs	r3, #12
 191 005e 2593     		str	r3, [sp, #148]
 113:Core/Src/stm32l4xx_hal_msp.c ****     GPIO_InitStruct.Pull = GPIO_NOPULL;
 192              		.loc 1 113 5 is_stmt 1 view .LVU46
 113:Core/Src/stm32l4xx_hal_msp.c ****     GPIO_InitStruct.Pull = GPIO_NOPULL;
 193              		.loc 1 113 26 is_stmt 0 view .LVU47
 194 0060 0223     		movs	r3, #2
 195 0062 2693     		str	r3, [sp, #152]
 114:Core/Src/stm32l4xx_hal_msp.c ****     GPIO_InitStruct.Speed = GPIO_SPEED_FREQ_VERY_HIGH;
 196              		.loc 1 114 5 is_stmt 1 view .LVU48
 114:Core/Src/stm32l4xx_hal_msp.c ****     GPIO_InitStruct.Speed = GPIO_SPEED_FREQ_VERY_HIGH;
ARM GAS  C:\Users\vuvan\AppData\Local\Temp\ccgZoVN3.s 			page 7


 197              		.loc 1 114 26 is_stmt 0 view .LVU49
 198 0064 0023     		movs	r3, #0
 199 0066 2793     		str	r3, [sp, #156]
 115:Core/Src/stm32l4xx_hal_msp.c ****     GPIO_InitStruct.Alternate = GPIO_AF7_USART2;
 200              		.loc 1 115 5 is_stmt 1 view .LVU50
 115:Core/Src/stm32l4xx_hal_msp.c ****     GPIO_InitStruct.Alternate = GPIO_AF7_USART2;
 201              		.loc 1 115 27 is_stmt 0 view .LVU51
 202 0068 0323     		movs	r3, #3
 203 006a 2893     		str	r3, [sp, #160]
 116:Core/Src/stm32l4xx_hal_msp.c ****     HAL_GPIO_Init(GPIOA, &GPIO_InitStruct);
 204              		.loc 1 116 5 is_stmt 1 view .LVU52
 116:Core/Src/stm32l4xx_hal_msp.c ****     HAL_GPIO_Init(GPIOA, &GPIO_InitStruct);
 205              		.loc 1 116 31 is_stmt 0 view .LVU53
 206 006c 0723     		movs	r3, #7
 207 006e 2993     		str	r3, [sp, #164]
 117:Core/Src/stm32l4xx_hal_msp.c **** 
 208              		.loc 1 117 5 is_stmt 1 view .LVU54
 209 0070 25A9     		add	r1, sp, #148
 210 0072 4FF09040 		mov	r0, #1207959552
 211 0076 FFF7FEFF 		bl	HAL_GPIO_Init
 212              	.LVL5:
 213              		.loc 1 124 1 is_stmt 0 view .LVU55
 214 007a D2E7     		b	.L5
 215              	.L10:
 101:Core/Src/stm32l4xx_hal_msp.c ****     }
 216              		.loc 1 101 7 is_stmt 1 view .LVU56
 217 007c FFF7FEFF 		bl	Error_Handler
 218              	.LVL6:
 219 0080 D9E7     		b	.L7
 220              	.L12:
 221 0082 00BF     		.align	2
 222              	.L11:
 223 0084 00440040 		.word	1073759232
 224 0088 00100240 		.word	1073876992
 225              		.cfi_endproc
 226              	.LFE133:
 228              		.section	.text.HAL_UART_MspDeInit,"ax",%progbits
 229              		.align	1
 230              		.global	HAL_UART_MspDeInit
 231              		.syntax unified
 232              		.thumb
 233              		.thumb_func
 234              		.fpu fpv4-sp-d16
 236              	HAL_UART_MspDeInit:
 237              	.LVL7:
 238              	.LFB134:
 125:Core/Src/stm32l4xx_hal_msp.c **** 
 126:Core/Src/stm32l4xx_hal_msp.c **** /**
 127:Core/Src/stm32l4xx_hal_msp.c **** * @brief UART MSP De-Initialization
 128:Core/Src/stm32l4xx_hal_msp.c **** * This function freeze the hardware resources used in this example
 129:Core/Src/stm32l4xx_hal_msp.c **** * @param huart: UART handle pointer
 130:Core/Src/stm32l4xx_hal_msp.c **** * @retval None
 131:Core/Src/stm32l4xx_hal_msp.c **** */
 132:Core/Src/stm32l4xx_hal_msp.c **** void HAL_UART_MspDeInit(UART_HandleTypeDef* huart)
 133:Core/Src/stm32l4xx_hal_msp.c **** {
 239              		.loc 1 133 1 view -0
 240              		.cfi_startproc
ARM GAS  C:\Users\vuvan\AppData\Local\Temp\ccgZoVN3.s 			page 8


 241              		@ args = 0, pretend = 0, frame = 0
 242              		@ frame_needed = 0, uses_anonymous_args = 0
 243              		.loc 1 133 1 is_stmt 0 view .LVU58
 244 0000 08B5     		push	{r3, lr}
 245              	.LCFI6:
 246              		.cfi_def_cfa_offset 8
 247              		.cfi_offset 3, -8
 248              		.cfi_offset 14, -4
 134:Core/Src/stm32l4xx_hal_msp.c ****   if(huart->Instance==USART2)
 249              		.loc 1 134 3 is_stmt 1 view .LVU59
 250              		.loc 1 134 11 is_stmt 0 view .LVU60
 251 0002 0268     		ldr	r2, [r0]
 252              		.loc 1 134 5 view .LVU61
 253 0004 074B     		ldr	r3, .L17
 254 0006 9A42     		cmp	r2, r3
 255 0008 00D0     		beq	.L16
 256              	.LVL8:
 257              	.L13:
 135:Core/Src/stm32l4xx_hal_msp.c ****   {
 136:Core/Src/stm32l4xx_hal_msp.c ****   /* USER CODE BEGIN USART2_MspDeInit 0 */
 137:Core/Src/stm32l4xx_hal_msp.c **** 
 138:Core/Src/stm32l4xx_hal_msp.c ****   /* USER CODE END USART2_MspDeInit 0 */
 139:Core/Src/stm32l4xx_hal_msp.c ****     /* Peripheral clock disable */
 140:Core/Src/stm32l4xx_hal_msp.c ****     __HAL_RCC_USART2_CLK_DISABLE();
 141:Core/Src/stm32l4xx_hal_msp.c **** 
 142:Core/Src/stm32l4xx_hal_msp.c ****     /**USART2 GPIO Configuration
 143:Core/Src/stm32l4xx_hal_msp.c ****     PA2     ------> USART2_TX
 144:Core/Src/stm32l4xx_hal_msp.c ****     PA3     ------> USART2_RX
 145:Core/Src/stm32l4xx_hal_msp.c ****     */
 146:Core/Src/stm32l4xx_hal_msp.c ****     HAL_GPIO_DeInit(GPIOA, USART_TX_Pin|USART_RX_Pin);
 147:Core/Src/stm32l4xx_hal_msp.c **** 
 148:Core/Src/stm32l4xx_hal_msp.c ****   /* USER CODE BEGIN USART2_MspDeInit 1 */
 149:Core/Src/stm32l4xx_hal_msp.c **** 
 150:Core/Src/stm32l4xx_hal_msp.c ****   /* USER CODE END USART2_MspDeInit 1 */
 151:Core/Src/stm32l4xx_hal_msp.c ****   }
 152:Core/Src/stm32l4xx_hal_msp.c **** 
 153:Core/Src/stm32l4xx_hal_msp.c **** }
 258              		.loc 1 153 1 view .LVU62
 259 000a 08BD     		pop	{r3, pc}
 260              	.LVL9:
 261              	.L16:
 140:Core/Src/stm32l4xx_hal_msp.c **** 
 262              		.loc 1 140 5 is_stmt 1 view .LVU63
 263 000c 064A     		ldr	r2, .L17+4
 264 000e 936D     		ldr	r3, [r2, #88]
 265 0010 23F40033 		bic	r3, r3, #131072
 266 0014 9365     		str	r3, [r2, #88]
 146:Core/Src/stm32l4xx_hal_msp.c **** 
 267              		.loc 1 146 5 view .LVU64
 268 0016 0C21     		movs	r1, #12
 269 0018 4FF09040 		mov	r0, #1207959552
 270              	.LVL10:
 146:Core/Src/stm32l4xx_hal_msp.c **** 
 271              		.loc 1 146 5 is_stmt 0 view .LVU65
 272 001c FFF7FEFF 		bl	HAL_GPIO_DeInit
 273              	.LVL11:
 274              		.loc 1 153 1 view .LVU66
ARM GAS  C:\Users\vuvan\AppData\Local\Temp\ccgZoVN3.s 			page 9


 275 0020 F3E7     		b	.L13
 276              	.L18:
 277 0022 00BF     		.align	2
 278              	.L17:
 279 0024 00440040 		.word	1073759232
 280 0028 00100240 		.word	1073876992
 281              		.cfi_endproc
 282              	.LFE134:
 284              		.text
 285              	.Letext0:
 286              		.file 2 "c:\\program files (x86)\\gnu tools arm embedded\\9 2019-q4-major\\arm-none-eabi\\include\
 287              		.file 3 "c:\\program files (x86)\\gnu tools arm embedded\\9 2019-q4-major\\arm-none-eabi\\include\
 288              		.file 4 "Drivers/CMSIS/Include/core_cm4.h"
 289              		.file 5 "Drivers/CMSIS/Device/ST/STM32L4xx/Include/system_stm32l4xx.h"
 290              		.file 6 "Drivers/CMSIS/Device/ST/STM32L4xx/Include/stm32l476xx.h"
 291              		.file 7 "Drivers/STM32L4xx_HAL_Driver/Inc/stm32l4xx_hal_def.h"
 292              		.file 8 "Drivers/STM32L4xx_HAL_Driver/Inc/stm32l4xx_hal_rcc_ex.h"
 293              		.file 9 "Drivers/STM32L4xx_HAL_Driver/Inc/stm32l4xx_hal_gpio.h"
 294              		.file 10 "Drivers/STM32L4xx_HAL_Driver/Inc/stm32l4xx_hal_dma.h"
 295              		.file 11 "Drivers/STM32L4xx_HAL_Driver/Inc/stm32l4xx_hal_flash.h"
 296              		.file 12 "Drivers/STM32L4xx_HAL_Driver/Inc/stm32l4xx_hal_uart.h"
 297              		.file 13 "Drivers/STM32L4xx_HAL_Driver/Inc/stm32l4xx_hal.h"
 298              		.file 14 "Core/Inc/main.h"
 299              		.file 15 "<built-in>"
ARM GAS  C:\Users\vuvan\AppData\Local\Temp\ccgZoVN3.s 			page 10

